target datalayout = "e-m:e-p270:32:32-p271:32:32-p272:64:64-i64:64-i128:128-f80:128-n8:16:32:64-S128"
target triple = "x86_64-pc-linux-gnu"

%"class.Luau::CodeGen::NativeModule" = type { %"struct.std::atomic", ptr, %"class.std::optional", ptr, %"class.std::vector" }
%"struct.std::atomic" = type { %"struct.std::__atomic_base" }
%"struct.std::__atomic_base" = type { i64 }
%"class.std::optional" = type { %"struct.std::_Optional_base" }
%"struct.std::_Optional_base" = type { %"struct.std::_Optional_payload" }
%"struct.std::_Optional_payload" = type { %"struct.std::_Optional_payload_base" }
%"struct.std::_Optional_payload_base" = type { %"union.std::_Optional_payload_base<std::array<unsigned char, 16>>::_Storage", i8 }
%"union.std::_Optional_payload_base<std::array<unsigned char, 16>>::_Storage" = type { %"struct.std::array" }
%"struct.std::array" = type { [16 x i8] }
%"class.std::vector" = type { %"struct.std::_Vector_base" }
%"struct.std::_Vector_base" = type { %"struct.std::_Vector_base<std::unique_ptr<unsigned int[], Luau::CodeGen::NativeProtoExecDataDeleter>, std::allocator<std::unique_ptr<unsigned int[], Luau::CodeGen::NativeProtoExecDataDeleter>>>::_Vector_impl" }
%"struct.std::_Vector_base<std::unique_ptr<unsigned int[], Luau::CodeGen::NativeProtoExecDataDeleter>, std::allocator<std::unique_ptr<unsigned int[], Luau::CodeGen::NativeProtoExecDataDeleter>>>::_Vector_impl" = type { %"struct.std::_Vector_base<std::unique_ptr<unsigned int[], Luau::CodeGen::NativeProtoExecDataDeleter>, std::allocator<std::unique_ptr<unsigned int[], Luau::CodeGen::NativeProtoExecDataDeleter>>>::_Vector_impl_data" }
%"struct.std::_Vector_base<std::unique_ptr<unsigned int[], Luau::CodeGen::NativeProtoExecDataDeleter>, std::allocator<std::unique_ptr<unsigned int[], Luau::CodeGen::NativeProtoExecDataDeleter>>>::_Vector_impl_data" = type { ptr, ptr, ptr }
%"class.std::unique_ptr" = type { %"struct.std::__uniq_ptr_data" }
%"struct.std::__uniq_ptr_data" = type { %"class.std::__uniq_ptr_impl" }
%"class.std::__uniq_ptr_impl" = type { %"class.std::tuple" }
%"class.std::tuple" = type { %"struct.std::_Tuple_impl" }
%"struct.std::_Tuple_impl" = type { %"struct.std::_Head_base.1" }
%"struct.std::_Head_base.1" = type { ptr }
%"struct.std::pair" = type { %"class.__gnu_cxx::__normal_iterator.7", %"class.__gnu_cxx::__normal_iterator.7" }
%"class.__gnu_cxx::__normal_iterator.7" = type { ptr }
%"struct.Luau::CodeGen::NativeProtoBytecodeIdLess" = type { i8 }
%"struct.__gnu_cxx::__ops::_Iter_comp_val" = type { %"struct.Luau::CodeGen::NativeProtoBytecodeIdLess" }
%"struct.__gnu_cxx::__ops::_Val_comp_iter" = type { %"struct.Luau::CodeGen::NativeProtoBytecodeIdLess" }

; Function Attrs: mustprogress nounwind uwtable
define linkonce_odr dso_local noundef nonnull align 8 dereferenceable(8) ptr @_ZNSt10_Head_baseILm0EPjLb0EE7_M_headERKS1_(ptr noundef nonnull align 8 dereferenceable(8) %0) #0 comdat align 2 {
  %2 = alloca ptr, align 8
  store ptr %0, ptr %2, align 8
  %3 = load ptr, ptr %2, align 8
  %4 = getelementptr inbounds %"struct.std::_Head_base.1", ptr %3, i32 0, i32 0
  ret ptr %4
}

; Function Attrs: mustprogress nounwind uwtable
define linkonce_odr dso_local noundef nonnull align 8 dereferenceable(8) ptr @_ZNSt11_Tuple_implILm0EJPjN4Luau7CodeGen26NativeProtoExecDataDeleterEEE7_M_headERKS4_(ptr noundef nonnull align 8 dereferenceable(8) %0) #0 comdat align 2 {
  %2 = alloca ptr, align 8
  store ptr %0, ptr %2, align 8
  %3 = load ptr, ptr %2, align 8
  %4 = call noundef nonnull align 8 dereferenceable(8) ptr @_ZNSt10_Head_baseILm0EPjLb0EE7_M_headERKS1_(ptr noundef nonnull align 8 dereferenceable(8) %3) #14
  ret ptr %4
}

; Function Attrs: mustprogress nounwind uwtable
define linkonce_odr dso_local noundef nonnull align 8 dereferenceable(8) ptr @_ZSt12__get_helperILm0EPjJN4Luau7CodeGen26NativeProtoExecDataDeleterEEERKT0_RKSt11_Tuple_implIXT_EJS4_DpT1_EE(ptr noundef nonnull align 8 dereferenceable(8) %0) #0 comdat {
  %2 = alloca ptr, align 8
  store ptr %0, ptr %2, align 8
  %3 = load ptr, ptr %2, align 8
  %4 = call noundef nonnull align 8 dereferenceable(8) ptr @_ZNSt11_Tuple_implILm0EJPjN4Luau7CodeGen26NativeProtoExecDataDeleterEEE7_M_headERKS4_(ptr noundef nonnull align 8 dereferenceable(8) %3) #14
  ret ptr %4
}

; Function Attrs: mustprogress nounwind uwtable
define linkonce_odr dso_local noundef nonnull align 8 dereferenceable(8) ptr @_ZSt3getILm0EJPjN4Luau7CodeGen26NativeProtoExecDataDeleterEEERKNSt13tuple_elementIXT_ESt5tupleIJDpT0_EEE4typeERKS8_(ptr noundef nonnull align 8 dereferenceable(8) %0) #0 comdat {
  %2 = alloca ptr, align 8
  store ptr %0, ptr %2, align 8
  %3 = load ptr, ptr %2, align 8
  %4 = call noundef nonnull align 8 dereferenceable(8) ptr @_ZSt12__get_helperILm0EPjJN4Luau7CodeGen26NativeProtoExecDataDeleterEEERKT0_RKSt11_Tuple_implIXT_EJS4_DpT1_EE(ptr noundef nonnull align 8 dereferenceable(8) %3) #14
  ret ptr %4
}

; Function Attrs: mustprogress nounwind uwtable
define linkonce_odr dso_local void @_ZN9__gnu_cxx5__ops14_Val_comp_iterIN4Luau7CodeGen25NativeProtoBytecodeIdLessEEC2ES4_(ptr noundef nonnull align 1 dereferenceable(1) %0) unnamed_addr #0 comdat align 2 {
  %2 = alloca ptr, align 8
  store ptr %0, ptr %2, align 8
  ret void
}

; Function Attrs: mustprogress nounwind uwtable
define linkonce_odr dso_local void @_ZN9__gnu_cxx5__ops14_Iter_comp_valIN4Luau7CodeGen25NativeProtoBytecodeIdLessEEC2ES4_(ptr noundef nonnull align 1 dereferenceable(1) %0) unnamed_addr #0 comdat align 2 {
  %2 = alloca ptr, align 8
  store ptr %0, ptr %2, align 8
  ret void
}

; Function Attrs: mustprogress nounwind uwtable
define linkonce_odr dso_local noundef ptr @_ZNKSt15__uniq_ptr_implIjN4Luau7CodeGen26NativeProtoExecDataDeleterEE6_M_ptrEv(ptr noundef nonnull align 8 dereferenceable(8) %0) #0 comdat align 2 {
  %2 = alloca ptr, align 8
  store ptr %0, ptr %2, align 8
  %3 = load ptr, ptr %2, align 8
  %4 = getelementptr inbounds %"class.std::__uniq_ptr_impl", ptr %3, i32 0, i32 0
  %5 = call noundef nonnull align 8 dereferenceable(8) ptr @_ZSt3getILm0EJPjN4Luau7CodeGen26NativeProtoExecDataDeleterEEERKNSt13tuple_elementIXT_ESt5tupleIJDpT0_EEE4typeERKS8_(ptr noundef nonnull align 8 dereferenceable(8) %4) #14
  %6 = load ptr, ptr %5, align 8
  ret ptr %6
}

; Function Attrs: mustprogress nounwind uwtable
define linkonce_odr dso_local noundef nonnull align 8 dereferenceable(8) ptr @_ZNK9__gnu_cxx17__normal_iteratorIPKSt10unique_ptrIA_jN4Luau7CodeGen26NativeProtoExecDataDeleterEESt6vectorIS6_SaIS6_EEE4baseEv(ptr noundef nonnull align 8 dereferenceable(8) %0) #0 comdat align 2 {
  %2 = alloca ptr, align 8
  store ptr %0, ptr %2, align 8
  %3 = load ptr, ptr %2, align 8
  %4 = getelementptr inbounds %"class.__gnu_cxx::__normal_iterator.7", ptr %3, i32 0, i32 0
  ret ptr %4
}

; Function Attrs: mustprogress uwtable
define linkonce_odr dso_local void @_ZN9__gnu_cxx5__ops15__val_comp_iterIN4Luau7CodeGen25NativeProtoBytecodeIdLessEEENS0_14_Val_comp_iterIT_EES6_() #3 comdat {
  %1 = alloca %"struct.__gnu_cxx::__ops::_Val_comp_iter", align 1
  call void @_ZN9__gnu_cxx5__ops14_Val_comp_iterIN4Luau7CodeGen25NativeProtoBytecodeIdLessEEC2ES4_(ptr noundef nonnull align 1 dereferenceable(1) %1)
  ret void
}

; Function Attrs: mustprogress uwtable
define linkonce_odr dso_local void @_ZN9__gnu_cxx5__ops15__iter_comp_valIN4Luau7CodeGen25NativeProtoBytecodeIdLessEEENS0_14_Iter_comp_valIT_EES6_() #3 comdat {
  %1 = alloca %"struct.__gnu_cxx::__ops::_Iter_comp_val", align 1
  call void @_ZN9__gnu_cxx5__ops14_Iter_comp_valIN4Luau7CodeGen25NativeProtoBytecodeIdLessEEC2ES4_(ptr noundef nonnull align 1 dereferenceable(1) %1)
  ret void
}

; Function Attrs: mustprogress nounwind uwtable
define linkonce_odr dso_local void @_ZN9__gnu_cxx17__normal_iteratorIPKSt10unique_ptrIA_jN4Luau7CodeGen26NativeProtoExecDataDeleterEESt6vectorIS6_SaIS6_EEEC2ERKS8_(ptr noundef nonnull align 8 dereferenceable(8) %0, ptr noundef nonnull align 8 dereferenceable(8) %1) unnamed_addr #0 comdat align 2 {
  %3 = alloca ptr, align 8
  %4 = alloca ptr, align 8
  store ptr %0, ptr %3, align 8
  store ptr %1, ptr %4, align 8
  %5 = load ptr, ptr %3, align 8
  %6 = getelementptr inbounds %"class.__gnu_cxx::__normal_iterator.7", ptr %5, i32 0, i32 0
  %7 = load ptr, ptr %4, align 8
  %8 = load ptr, ptr %7, align 8
  store ptr %8, ptr %6, align 8
  ret void
}

; Function Attrs: mustprogress nounwind uwtable
define linkonce_odr dso_local noundef ptr @_ZNKSt10unique_ptrIA_jN4Luau7CodeGen26NativeProtoExecDataDeleterEE3getEv(ptr noundef nonnull align 8 dereferenceable(8) %0) #0 comdat align 2 {
  %2 = alloca ptr, align 8
  store ptr %0, ptr %2, align 8
  %3 = load ptr, ptr %2, align 8
  %4 = getelementptr inbounds %"class.std::unique_ptr", ptr %3, i32 0, i32 0
  %5 = call noundef ptr @_ZNKSt15__uniq_ptr_implIjN4Luau7CodeGen26NativeProtoExecDataDeleterEE6_M_ptrEv(ptr noundef nonnull align 8 dereferenceable(8) %4) #14
  ret ptr %5
}

; Function Attrs: mustprogress nounwind uwtable
define linkonce_odr dso_local noundef ptr @_ZNK9__gnu_cxx17__normal_iteratorIPKSt10unique_ptrIA_jN4Luau7CodeGen26NativeProtoExecDataDeleterEESt6vectorIS6_SaIS6_EEEptEv(ptr noundef nonnull align 8 dereferenceable(8) %0) #0 comdat align 2 {
  %2 = alloca ptr, align 8
  store ptr %0, ptr %2, align 8
  %3 = load ptr, ptr %2, align 8
  %4 = getelementptr inbounds %"class.__gnu_cxx::__normal_iterator.7", ptr %3, i32 0, i32 0
  %5 = load ptr, ptr %4, align 8
  ret ptr %5
}

; Function Attrs: mustprogress nounwind uwtable
define linkonce_odr dso_local noundef zeroext i1 @_ZN9__gnu_cxxeqIPKSt10unique_ptrIA_jN4Luau7CodeGen26NativeProtoExecDataDeleterEESt6vectorIS6_SaIS6_EEEEbRKNS_17__normal_iteratorIT_T0_EESH_(ptr noundef nonnull align 8 dereferenceable(8) %0, ptr noundef nonnull align 8 dereferenceable(8) %1) #0 comdat {
  %3 = alloca ptr, align 8
  %4 = alloca ptr, align 8
  store ptr %0, ptr %3, align 8
  store ptr %1, ptr %4, align 8
  %5 = load ptr, ptr %3, align 8
  %6 = call noundef nonnull align 8 dereferenceable(8) ptr @_ZNK9__gnu_cxx17__normal_iteratorIPKSt10unique_ptrIA_jN4Luau7CodeGen26NativeProtoExecDataDeleterEESt6vectorIS6_SaIS6_EEE4baseEv(ptr noundef nonnull align 8 dereferenceable(8) %5) #14
  %7 = load ptr, ptr %6, align 8
  %8 = load ptr, ptr %4, align 8
  %9 = call noundef nonnull align 8 dereferenceable(8) ptr @_ZNK9__gnu_cxx17__normal_iteratorIPKSt10unique_ptrIA_jN4Luau7CodeGen26NativeProtoExecDataDeleterEESt6vectorIS6_SaIS6_EEE4baseEv(ptr noundef nonnull align 8 dereferenceable(8) %8) #14
  %10 = load ptr, ptr %9, align 8
  %11 = icmp eq ptr %7, %10
  ret i1 %11
}

; Function Attrs: mustprogress uwtable
define linkonce_odr dso_local { ptr, ptr } @_ZSt11equal_rangeIN9__gnu_cxx17__normal_iteratorIPKSt10unique_ptrIA_jN4Luau7CodeGen26NativeProtoExecDataDeleterEESt6vectorIS7_SaIS7_EEEEjNS5_25NativeProtoBytecodeIdLessEESt4pairIT_SG_ESG_SG_RKT0_T1_(ptr %0, ptr %1, ptr noundef nonnull align 4 dereferenceable(4) %2) #3 comdat {
  %4 = alloca %"struct.std::pair", align 8
  %5 = alloca %"class.__gnu_cxx::__normal_iterator.7", align 8
  %6 = alloca %"class.__gnu_cxx::__normal_iterator.7", align 8
  %7 = alloca ptr, align 8
  %8 = alloca %"class.__gnu_cxx::__normal_iterator.7", align 8
  %9 = alloca %"class.__gnu_cxx::__normal_iterator.7", align 8
  %10 = getelementptr inbounds %"class.__gnu_cxx::__normal_iterator.7", ptr %5, i32 0, i32 0
  store ptr %0, ptr %10, align 8
  %11 = getelementptr inbounds %"class.__gnu_cxx::__normal_iterator.7", ptr %6, i32 0, i32 0
  store ptr %1, ptr %11, align 8
  store ptr %2, ptr %7, align 8
  call void @llvm.memcpy.p0.p0.i64(ptr align 8 %8, ptr align 8 %5, i64 8, i1 false)
  call void @llvm.memcpy.p0.p0.i64(ptr align 8 %9, ptr align 8 %6, i64 8, i1 false)
  %12 = load ptr, ptr %7, align 8
  call void @_ZN9__gnu_cxx5__ops15__iter_comp_valIN4Luau7CodeGen25NativeProtoBytecodeIdLessEEENS0_14_Iter_comp_valIT_EES6_()
  call void @_ZN9__gnu_cxx5__ops15__val_comp_iterIN4Luau7CodeGen25NativeProtoBytecodeIdLessEEENS0_14_Val_comp_iterIT_EES6_()
  %13 = getelementptr inbounds %"class.__gnu_cxx::__normal_iterator.7", ptr %8, i32 0, i32 0
  %14 = load ptr, ptr %13, align 8
  %15 = getelementptr inbounds %"class.__gnu_cxx::__normal_iterator.7", ptr %9, i32 0, i32 0
  %16 = load ptr, ptr %15, align 8
  %17 = call { ptr, ptr } @_ZSt13__equal_rangeIN9__gnu_cxx17__normal_iteratorIPKSt10unique_ptrIA_jN4Luau7CodeGen26NativeProtoExecDataDeleterEESt6vectorIS7_SaIS7_EEEEjNS0_5__ops14_Iter_comp_valINS5_25NativeProtoBytecodeIdLessEEENSE_14_Val_comp_iterISG_EEESt4pairIT_SL_ESL_SL_RKT0_T1_T2_(ptr %14, ptr %16, ptr noundef nonnull align 4 dereferenceable(4) %12)
  %18 = getelementptr inbounds { ptr, ptr }, ptr %4, i32 0, i32 0
  %19 = extractvalue { ptr, ptr } %17, 0
  store ptr %19, ptr %18, align 8
  %20 = getelementptr inbounds { ptr, ptr }, ptr %4, i32 0, i32 1
  %21 = extractvalue { ptr, ptr } %17, 1
  store ptr %21, ptr %20, align 8
  %22 = load { ptr, ptr }, ptr %4, align 8
  ret { ptr, ptr } %22
}

; Function Attrs: mustprogress nounwind uwtable
define linkonce_odr dso_local ptr @_ZNKSt6vectorISt10unique_ptrIA_jN4Luau7CodeGen26NativeProtoExecDataDeleterEESaIS5_EE3endEv(ptr noundef nonnull align 8 dereferenceable(24) %0) #0 comdat align 2 {
  %2 = alloca %"class.__gnu_cxx::__normal_iterator.7", align 8
  %3 = alloca ptr, align 8
  store ptr %0, ptr %3, align 8
  %4 = load ptr, ptr %3, align 8
  %5 = getelementptr inbounds %"struct.std::_Vector_base", ptr %4, i32 0, i32 0
  %6 = getelementptr inbounds %"struct.std::_Vector_base<std::unique_ptr<unsigned int[], Luau::CodeGen::NativeProtoExecDataDeleter>, std::allocator<std::unique_ptr<unsigned int[], Luau::CodeGen::NativeProtoExecDataDeleter>>>::_Vector_impl_data", ptr %5, i32 0, i32 1
  call void @_ZN9__gnu_cxx17__normal_iteratorIPKSt10unique_ptrIA_jN4Luau7CodeGen26NativeProtoExecDataDeleterEESt6vectorIS6_SaIS6_EEEC2ERKS8_(ptr noundef nonnull align 8 dereferenceable(8) %2, ptr noundef nonnull align 8 dereferenceable(8) %6) #14
  %7 = getelementptr inbounds %"class.__gnu_cxx::__normal_iterator.7", ptr %2, i32 0, i32 0
  %8 = load ptr, ptr %7, align 8
  ret ptr %8
}

; Function Attrs: mustprogress nounwind uwtable
define linkonce_odr dso_local ptr @_ZNKSt6vectorISt10unique_ptrIA_jN4Luau7CodeGen26NativeProtoExecDataDeleterEESaIS5_EE5beginEv(ptr noundef nonnull align 8 dereferenceable(24) %0) #0 comdat align 2 {
  %2 = alloca %"class.__gnu_cxx::__normal_iterator.7", align 8
  %3 = alloca ptr, align 8
  store ptr %0, ptr %3, align 8
  %4 = load ptr, ptr %3, align 8
  %5 = getelementptr inbounds %"struct.std::_Vector_base", ptr %4, i32 0, i32 0
  %6 = getelementptr inbounds %"struct.std::_Vector_base<std::unique_ptr<unsigned int[], Luau::CodeGen::NativeProtoExecDataDeleter>, std::allocator<std::unique_ptr<unsigned int[], Luau::CodeGen::NativeProtoExecDataDeleter>>>::_Vector_impl_data", ptr %5, i32 0, i32 0
  call void @_ZN9__gnu_cxx17__normal_iteratorIPKSt10unique_ptrIA_jN4Luau7CodeGen26NativeProtoExecDataDeleterEESt6vectorIS6_SaIS6_EEEC2ERKS8_(ptr noundef nonnull align 8 dereferenceable(8) %2, ptr noundef nonnull align 8 dereferenceable(8) %6) #14
  %7 = getelementptr inbounds %"class.__gnu_cxx::__normal_iterator.7", ptr %2, i32 0, i32 0
  %8 = load ptr, ptr %7, align 8
  ret ptr %8
}

; Function Attrs: mustprogress nounwind uwtable
define dso_local noundef ptr @_ZNK4Luau7CodeGen12NativeModule17tryGetNativeProtoEj(ptr noundef nonnull align 8 dereferenceable(72) %0, i32 noundef %1) #0 align 2 personality ptr @__gxx_personality_v0 {
  %3 = alloca ptr, align 8
  %4 = alloca ptr, align 8
  %5 = alloca i32, align 4
  %6 = alloca %"struct.std::pair", align 8
  %7 = alloca %"class.__gnu_cxx::__normal_iterator.7", align 8
  %8 = alloca %"class.__gnu_cxx::__normal_iterator.7", align 8
  store ptr %0, ptr %4, align 8
  store i32 %1, ptr %5, align 4
  %9 = load ptr, ptr %4, align 8
  %10 = getelementptr inbounds %"class.Luau::CodeGen::NativeModule", ptr %9, i32 0, i32 4
  %11 = call ptr @_ZNKSt6vectorISt10unique_ptrIA_jN4Luau7CodeGen26NativeProtoExecDataDeleterEESaIS5_EE5beginEv(ptr noundef nonnull align 8 dereferenceable(24) %10) #14
  %12 = getelementptr inbounds %"class.__gnu_cxx::__normal_iterator.7", ptr %7, i32 0, i32 0
  store ptr %11, ptr %12, align 8
  %13 = getelementptr inbounds %"class.Luau::CodeGen::NativeModule", ptr %9, i32 0, i32 4
  %14 = call ptr @_ZNKSt6vectorISt10unique_ptrIA_jN4Luau7CodeGen26NativeProtoExecDataDeleterEESaIS5_EE3endEv(ptr noundef nonnull align 8 dereferenceable(24) %13) #14
  %15 = getelementptr inbounds %"class.__gnu_cxx::__normal_iterator.7", ptr %8, i32 0, i32 0
  store ptr %14, ptr %15, align 8
  %16 = getelementptr inbounds %"class.__gnu_cxx::__normal_iterator.7", ptr %7, i32 0, i32 0
  %17 = load ptr, ptr %16, align 8
  %18 = getelementptr inbounds %"class.__gnu_cxx::__normal_iterator.7", ptr %8, i32 0, i32 0
  %19 = load ptr, ptr %18, align 8
  %20 = invoke { ptr, ptr } @_ZSt11equal_rangeIN9__gnu_cxx17__normal_iteratorIPKSt10unique_ptrIA_jN4Luau7CodeGen26NativeProtoExecDataDeleterEESt6vectorIS7_SaIS7_EEEEjNS5_25NativeProtoBytecodeIdLessEESt4pairIT_SG_ESG_SG_RKT0_T1_(ptr %17, ptr %19, ptr noundef nonnull align 4 dereferenceable(4) %5)
          to label %21 unwind label %36

21:                                               ; preds = %2
  %22 = getelementptr inbounds { ptr, ptr }, ptr %6, i32 0, i32 0
  %23 = extractvalue { ptr, ptr } %20, 0
  store ptr %23, ptr %22, align 8
  %24 = getelementptr inbounds { ptr, ptr }, ptr %6, i32 0, i32 1
  %25 = extractvalue { ptr, ptr } %20, 1
  store ptr %25, ptr %24, align 8
  %26 = getelementptr inbounds %"struct.std::pair", ptr %6, i32 0, i32 0
  %27 = getelementptr inbounds %"struct.std::pair", ptr %6, i32 0, i32 1
  %28 = call noundef zeroext i1 @_ZN9__gnu_cxxeqIPKSt10unique_ptrIA_jN4Luau7CodeGen26NativeProtoExecDataDeleterEESt6vectorIS6_SaIS6_EEEEbRKNS_17__normal_iteratorIT_T0_EESH_(ptr noundef nonnull align 8 dereferenceable(8) %26, ptr noundef nonnull align 8 dereferenceable(8) %27) #14
  br i1 %28, label %29, label %30

29:                                               ; preds = %21
  store ptr null, ptr %3, align 8
  br label %34

30:                                               ; preds = %21
  %31 = getelementptr inbounds %"struct.std::pair", ptr %6, i32 0, i32 0
  %32 = call noundef ptr @_ZNK9__gnu_cxx17__normal_iteratorIPKSt10unique_ptrIA_jN4Luau7CodeGen26NativeProtoExecDataDeleterEESt6vectorIS6_SaIS6_EEEptEv(ptr noundef nonnull align 8 dereferenceable(8) %31) #14
  %33 = call noundef ptr @_ZNKSt10unique_ptrIA_jN4Luau7CodeGen26NativeProtoExecDataDeleterEE3getEv(ptr noundef nonnull align 8 dereferenceable(8) %32) #14
  store ptr %33, ptr %3, align 8
  br label %34

34:                                               ; preds = %30, %29
  %35 = load ptr, ptr %3, align 8
  ret ptr %35

36:                                               ; preds = %2
  %37 = landingpad { ptr, i32 }
          catch ptr null
  %38 = extractvalue { ptr, i32 } %37, 0
  call void @__clang_call_terminate(ptr %38) #15
  unreachable
}