; Function Attrs: mustprogress nounwind uwtable
define dso_local noundef ptr @_ZNK4Luau7CodeGen12NativeModule17tryGetNativeProtoEj(ptr nocapture noundef nonnull readonly align 8 dereferenceable(72) %0, i32 noundef %1) local_unnamed_addr #0 align 2 personality ptr @__gxx_personality_v0 {
  %3 = alloca i32, align 4
  store i32 %1, ptr %3, align 4
  %4 = getelementptr inbounds i8, ptr %0, i64 48
  %5 = load ptr, ptr %4, align 8
  %6 = getelementptr inbounds i8, ptr %0, i64 56
  %7 = load ptr, ptr %6, align 8
  %8 = invoke { ptr, ptr } @_ZSt13__equal_rangeIN9__gnu_cxx17__normal_iteratorIPKSt10unique_ptrIA_jN4Luau7CodeGen26NativeProtoExecDataDeleterEESt6vectorIS7_SaIS7_EEEEjNS0_5__ops14_Iter_comp_valINS5_25NativeProtoBytecodeIdLessEEENSE_14_Val_comp_iterISG_EEESt4pairIT_SL_ESL_SL_RKT0_T1_T2_(ptr %5, ptr %7, ptr noundef nonnull align 4 dereferenceable(4) %3)
          to label %_ZSt11equal_rangeIN9__gnu_cxx17__normal_iteratorIPKSt10unique_ptrIA_jN4Luau7CodeGen26NativeProtoExecDataDeleterEESt6vectorIS7_SaIS7_EEEEjNS5_25NativeProtoBytecodeIdLessEESt4pairIT_SG_ESG_SG_RKT0_T1_.exit unwind label %15

_ZSt11equal_rangeIN9__gnu_cxx17__normal_iteratorIPKSt10unique_ptrIA_jN4Luau7CodeGen26NativeProtoExecDataDeleterEESt6vectorIS7_SaIS7_EEEEjNS5_25NativeProtoBytecodeIdLessEESt4pairIT_SG_ESG_SG_RKT0_T1_.exit: ; preds = %2
  %9 = extractvalue { ptr, ptr } %8, 0
  %10 = extractvalue { ptr, ptr } %8, 1
  %11 = icmp eq ptr %9, %10
  br i1 %11, label %14, label %12

12:                                               ; preds = %_ZSt11equal_rangeIN9__gnu_cxx17__normal_iteratorIPKSt10unique_ptrIA_jN4Luau7CodeGen26NativeProtoExecDataDeleterEESt6vectorIS7_SaIS7_EEEEjNS5_25NativeProtoBytecodeIdLessEESt4pairIT_SG_ESG_SG_RKT0_T1_.exit
  %13 = load ptr, ptr %9, align 8
  br label %14

14:                                               ; preds = %_ZSt11equal_rangeIN9__gnu_cxx17__normal_iteratorIPKSt10unique_ptrIA_jN4Luau7CodeGen26NativeProtoExecDataDeleterEESt6vectorIS7_SaIS7_EEEEjNS5_25NativeProtoBytecodeIdLessEESt4pairIT_SG_ESG_SG_RKT0_T1_.exit, %12
  %.0 = phi ptr [ %13, %12 ], [ null, %_ZSt11equal_rangeIN9__gnu_cxx17__normal_iteratorIPKSt10unique_ptrIA_jN4Luau7CodeGen26NativeProtoExecDataDeleterEESt6vectorIS7_SaIS7_EEEEjNS5_25NativeProtoBytecodeIdLessEESt4pairIT_SG_ESG_SG_RKT0_T1_.exit ]
  ret ptr %.0

15:                                               ; preds = %2
  %16 = landingpad { ptr, i32 }
          catch ptr null
  %17 = extractvalue { ptr, i32 } %16, 0
  call void @__clang_call_terminate(ptr %17) #21
  unreachable
}